; Function Attrs: nounwind uwtable
define internal ptr @meth_repr(ptr noundef readonly captures(none) %0) #0 {
  %2 = getelementptr inbounds nuw i8, ptr %0, i64 24
  %3 = load ptr, ptr %2, align 8, !tbaa !23
  %4 = icmp eq ptr %3, null
  br i1 %4, label %PyObject_TypeCheck.exit.thread, label %5

5:                                                ; preds = %1
  %6 = getelementptr i8, ptr %3, i64 8
  %.val9 = load ptr, ptr %6, align 8, !tbaa !113
  %.not.i = icmp eq ptr %.val9, @PyModule_Type
  br i1 %.not.i, label %PyObject_TypeCheck.exit.thread, label %PyObject_TypeCheck.exit

PyObject_TypeCheck.exit:                          ; preds = %5
  %7 = tail call i32 @PyType_IsSubtype(ptr noundef %.val9, ptr noundef nonnull @PyModule_Type) #5
  %.not11 = icmp eq i32 %7, 0
  br i1 %.not11, label %12, label %PyObject_TypeCheck.exit.thread

PyObject_TypeCheck.exit.thread:                   ; preds = %5, %PyObject_TypeCheck.exit, %1
  %8 = getelementptr inbounds nuw i8, ptr %0, i64 16
  %9 = load ptr, ptr %8, align 8, !tbaa !22
  %10 = load ptr, ptr %9, align 8, !tbaa !13
  %11 = tail call ptr (ptr, ...) @PyUnicode_FromFormat(ptr noundef nonnull @.str.8, ptr noundef %10) #5
  br label %21

12:                                               ; preds = %PyObject_TypeCheck.exit
  %13 = getelementptr inbounds nuw i8, ptr %0, i64 16
  %14 = load ptr, ptr %13, align 8, !tbaa !22
  %15 = load ptr, ptr %14, align 8, !tbaa !13
  %16 = load ptr, ptr %2, align 8, !tbaa !23
  %17 = getelementptr i8, ptr %16, i64 8
  %.val = load ptr, ptr %17, align 8, !tbaa !113
  %18 = getelementptr inbounds nuw i8, ptr %.val, i64 24
  %19 = load ptr, ptr %18, align 8, !tbaa !120
  %20 = tail call ptr (ptr, ...) @PyUnicode_FromFormat(ptr noundef nonnull @.str.9, ptr noundef %15, ptr noundef %19, ptr noundef %16) #5
  br label %21

21:                                               ; preds = %12, %PyObject_TypeCheck.exit.thread
  %.0 = phi ptr [ %11, %PyObject_TypeCheck.exit.thread ], [ %20, %12 ]
  ret ptr %.0
}